target datalayout = "e-m:e-p270:32:32-p271:32:32-p272:64:64-i64:64-i128:128-f80:128-n8:16:32:64-S128"
target triple = "x86_64-pc-linux-gnu"

%"struct.Imf_3_4::CompressionDesc" = type <{ %"class.std::__cxx11::basic_string", %"class.std::__cxx11::basic_string", i32, i8, i8, [2 x i8] }>
%"class.std::__cxx11::basic_string" = type { %"struct.std::__cxx11::basic_string<char>::_Alloc_hider", i64, %union.anon }
%"struct.std::__cxx11::basic_string<char>::_Alloc_hider" = type { ptr }
%union.anon = type { i64, [8 x i8] }

@_ZN7Imf_3_4L8IdToDescE = internal global [10 x %"struct.Imf_3_4::CompressionDesc"] zeroinitializer, align 16

; Function Attrs: mustprogress nounwind uwtable
define noundef zeroext i1 @_ZN7Imf_3_418isLossyCompressionENS_11CompressionE(i32 noundef %0) #2 {
  %2 = alloca i32, align 4
  store i32 %0, ptr %2, align 4, !tbaa !28
  %3 = load i32, ptr %2, align 4, !tbaa !28
  %4 = icmp sge i32 %3, 0
  br i1 %4, label %5, label %15

5:                                                ; preds = %1
  %6 = load i32, ptr %2, align 4, !tbaa !28
  %7 = icmp slt i32 %6, 10
  br i1 %7, label %8, label %15

8:                                                ; preds = %5
  %9 = load i32, ptr %2, align 4, !tbaa !28
  %10 = sext i32 %9 to i64
  %11 = getelementptr inbounds [10 x %"struct.Imf_3_4::CompressionDesc"], ptr @_ZN7Imf_3_4L8IdToDescE, i64 0, i64 %10
  %12 = getelementptr inbounds nuw %"struct.Imf_3_4::CompressionDesc", ptr %11, i32 0, i32 3
  %13 = load i8, ptr %12, align 4, !tbaa !25, !range !23, !noundef !24
  %14 = trunc i8 %13 to i1
  br label %15

15:                                               ; preds = %8, %5, %1
  %16 = phi i1 [ false, %5 ], [ false, %1 ], [ %14, %8 ]
  ret i1 %16
}